target datalayout = "e-m:e-p270:32:32-p271:32:32-p272:64:64-i64:64-i128:128-f80:128-n8:16:32:64-S128"
target triple = "x86_64-pc-linux-gnu"

%struct._GList = type { ptr, ptr, ptr }

; Function Attrs: nounwind uwtable
define ptr @dt_util_glist_uniq(ptr noundef %0) #0 {
  %2 = alloca ptr, align 8
  %3 = alloca ptr, align 8
  %4 = alloca ptr, align 8
  %5 = alloca ptr, align 8
  %6 = alloca ptr, align 8
  %7 = alloca ptr, align 8
  store ptr %0, ptr %3, align 8, !tbaa !23
  %8 = load ptr, ptr %3, align 8, !tbaa !23
  %9 = icmp ne ptr %8, null
  br i1 %9, label %11, label %10

10:                                               ; preds = %1
  store ptr null, ptr %2, align 8
  br label %47

11:                                               ; preds = %1
  call void @llvm.lifetime.start.p0(i64 8, ptr %4) #18
  store ptr null, ptr %4, align 8, !tbaa !6
  call void @llvm.lifetime.start.p0(i64 8, ptr %5) #18
  store ptr null, ptr %5, align 8, !tbaa !23
  %12 = load ptr, ptr %3, align 8, !tbaa !23
  %13 = call ptr @g_list_sort(ptr noundef %12, ptr noundef @g_strcmp0)
  store ptr %13, ptr %3, align 8, !tbaa !23
  call void @llvm.lifetime.start.p0(i64 8, ptr %6) #18
  %14 = load ptr, ptr %3, align 8, !tbaa !23
  store ptr %14, ptr %6, align 8, !tbaa !23
  br label %15

15:                                               ; preds = %43, %11
  %16 = load ptr, ptr %6, align 8, !tbaa !23
  %17 = icmp ne ptr %16, null
  br i1 %17, label %18, label %45

18:                                               ; preds = %15
  call void @llvm.lifetime.start.p0(i64 8, ptr %7) #18
  %19 = load ptr, ptr %6, align 8, !tbaa !23
  %20 = getelementptr inbounds nuw %struct._GList, ptr %19, i32 0, i32 0
  %21 = load ptr, ptr %20, align 8, !tbaa !25
  store ptr %21, ptr %7, align 8, !tbaa !6
  %22 = load ptr, ptr %4, align 8, !tbaa !6
  %23 = load ptr, ptr %7, align 8, !tbaa !6
  %24 = call i32 @g_strcmp0(ptr noundef %22, ptr noundef %23)
  %25 = icmp ne i32 %24, 0
  br i1 %25, label %32, label %26

26:                                               ; preds = %18
  %27 = load ptr, ptr %7, align 8, !tbaa !6
  call void @g_free(ptr noundef %27)
  %28 = load ptr, ptr %3, align 8, !tbaa !23
  %29 = load ptr, ptr %6, align 8, !tbaa !23
  %30 = call ptr @g_list_delete_link(ptr noundef %28, ptr noundef %29)
  store ptr %30, ptr %3, align 8, !tbaa !23
  %31 = load ptr, ptr %5, align 8, !tbaa !23
  store ptr %31, ptr %6, align 8, !tbaa !23
  br label %35

32:                                               ; preds = %18
  %33 = load ptr, ptr %7, align 8, !tbaa !6
  store ptr %33, ptr %4, align 8, !tbaa !6
  %34 = load ptr, ptr %6, align 8, !tbaa !23
  store ptr %34, ptr %5, align 8, !tbaa !23
  br label %35

35:                                               ; preds = %32, %26
  %36 = load ptr, ptr %6, align 8, !tbaa !23
  %37 = icmp ne ptr %36, null
  br i1 %37, label %38, label %42

38:                                               ; preds = %35
  %39 = load ptr, ptr %6, align 8, !tbaa !23
  %40 = getelementptr inbounds nuw %struct._GList, ptr %39, i32 0, i32 1
  %41 = load ptr, ptr %40, align 8, !tbaa !27
  br label %43

42:                                               ; preds = %35
  br label %43

43:                                               ; preds = %42, %38
  %44 = phi ptr [ %41, %38 ], [ null, %42 ]
  store ptr %44, ptr %6, align 8, !tbaa !23
  call void @llvm.lifetime.end.p0(i64 8, ptr %7) #18
  br label %15

45:                                               ; preds = %15
  %46 = load ptr, ptr %3, align 8, !tbaa !23
  store ptr %46, ptr %2, align 8
  call void @llvm.lifetime.end.p0(i64 8, ptr %6) #18
  call void @llvm.lifetime.end.p0(i64 8, ptr %5) #18
  call void @llvm.lifetime.end.p0(i64 8, ptr %4) #18
  br label %47

47:                                               ; preds = %45, %10
  %48 = load ptr, ptr %2, align 8
  ret ptr %48
}