; Function Attrs: nounwind uwtable
define ptr @dt_util_glist_uniq(ptr noundef %0) local_unnamed_addr #0 {
  %.not = icmp eq ptr %0, null
  br i1 %.not, label %.loopexit, label %2

2:                                                ; preds = %1
  %3 = tail call ptr @g_list_sort(ptr noundef nonnull %0, ptr noundef nonnull @g_strcmp0) #27
  %.not2538 = icmp eq ptr %3, null
  br i1 %.not2538, label %.loopexit, label %.lr.ph

.lr.ph:                                           ; preds = %2, %8
  %.01742 = phi ptr [ %10, %8 ], [ %3, %2 ]
  %.01841 = phi ptr [ %.136, %8 ], [ null, %2 ]
  %.02040 = phi ptr [ %.12134, %8 ], [ null, %2 ]
  %.02239 = phi ptr [ %.12332, %8 ], [ %3, %2 ]
  %4 = load ptr, ptr %.01742, align 8, !tbaa !12
  %5 = tail call i32 @g_strcmp0(ptr noundef %.02040, ptr noundef %4) #27
  %.not26 = icmp eq i32 %5, 0
  br i1 %.not26, label %6, label %8

6:                                                ; preds = %.lr.ph
  tail call void @g_free(ptr noundef %4) #27
  %7 = tail call ptr @g_list_delete_link(ptr noundef %.02239, ptr noundef nonnull %.01742) #27
  %.not27 = icmp eq ptr %.01841, null
  br i1 %.not27, label %.loopexit, label %8

8:                                                ; preds = %6, %.lr.ph
  %.136 = phi ptr [ %.01841, %6 ], [ %.01742, %.lr.ph ]
  %.12134 = phi ptr [ %.02040, %6 ], [ %4, %.lr.ph ]
  %.12332 = phi ptr [ %7, %6 ], [ %.02239, %.lr.ph ]
  %9 = getelementptr inbounds nuw i8, ptr %.136, i64 8
  %10 = load ptr, ptr %9, align 8, !tbaa !15
  %.not25 = icmp eq ptr %10, null
  br i1 %.not25, label %.loopexit, label %.lr.ph

.loopexit:                                        ; preds = %6, %8, %2, %1
  %.0 = phi ptr [ null, %1 ], [ null, %2 ], [ %7, %6 ], [ %.12332, %8 ]
  ret ptr %.0
}